target datalayout = "e-m:e-p270:32:32-p271:32:32-p272:64:64-i64:64-i128:128-f80:128-n8:16:32:64-S128"
target triple = "x86_64-pc-linux-gnu"

%struct.hostrange_t = type { ptr, i64, i64, i32, i8 }

@alpha_num = dso_local global ptr @.str, align 8
@.str.11 = private unnamed_addr constant [3 x i8] c"%s\00", align 1
@.str.20 = private unnamed_addr constant [8 x i8] c"%s%0*lu\00", align 1

; Function Attrs: nounwind uwtable
define dso_local void @hostlist_parse_int_to_array(i32 noundef %0, ptr noundef %1, i32 noundef %2, i32 noundef %3) #0 {
  %5 = alloca i32, align 4
  %6 = alloca ptr, align 8
  %7 = alloca i32, align 4
  %8 = alloca i32, align 4
  %9 = alloca i32, align 4
  store i32 %0, ptr %5, align 4
  store ptr %1, ptr %6, align 8
  store i32 %2, ptr %7, align 4
  store i32 %3, ptr %8, align 4
  call void @llvm.lifetime.start.p0(i64 4, ptr %9) #13
  %10 = load i32, ptr %8, align 4
  %11 = icmp ne i32 %10, 0
  br i1 %11, label %12, label %14

12:                                               ; preds = %4
  %13 = load i32, ptr %8, align 4
  br label %18

14:                                               ; preds = %4
  %15 = load i32, ptr %7, align 4
  %16 = icmp sgt i32 %15, 1
  %17 = select i1 %16, i32 36, i32 10
  br label %18

18:                                               ; preds = %14, %12
  %19 = phi i32 [ %13, %12 ], [ %17, %14 ]
  store i32 %19, ptr %9, align 4
  br label %20

20:                                               ; preds = %32, %18
  %21 = load i32, ptr %7, align 4
  %22 = add nsw i32 %21, -1
  store i32 %22, ptr %7, align 4
  %23 = icmp sge i32 %22, 0
  br i1 %23, label %24, label %36

24:                                               ; preds = %20
  %25 = load i32, ptr %5, align 4
  %26 = load i32, ptr %9, align 4
  %27 = srem i32 %25, %26
  %28 = load ptr, ptr %6, align 8
  %29 = load i32, ptr %7, align 4
  %30 = sext i32 %29 to i64
  %31 = getelementptr inbounds i32, ptr %28, i64 %30
  store i32 %27, ptr %31, align 4
  br label %32

32:                                               ; preds = %24
  %33 = load i32, ptr %9, align 4
  %34 = load i32, ptr %5, align 4
  %35 = sdiv i32 %34, %33
  store i32 %35, ptr %5, align 4
  br label %20, !llvm.loop !48

36:                                               ; preds = %20
  call void @llvm.lifetime.end.p0(i64 4, ptr %9) #13
  ret void
}

; Function Attrs: nounwind uwtable
define internal i64 @hostrange_to_string(ptr noundef %0, i64 noundef %1, ptr noundef %2, ptr noundef %3, i32 noundef %4) #0 {
  %6 = alloca i64, align 8
  %7 = alloca ptr, align 8
  %8 = alloca i64, align 8
  %9 = alloca ptr, align 8
  %10 = alloca ptr, align 8
  %11 = alloca i32, align 4
  %12 = alloca i64, align 8
  %13 = alloca i32, align 4
  %14 = alloca i32, align 4
  %15 = alloca i8, align 1
  %16 = alloca i32, align 4
  %17 = alloca i32, align 4
  %18 = alloca ptr, align 8
  %19 = alloca i64, align 8
  store ptr %0, ptr %7, align 8
  store i64 %1, ptr %8, align 8
  store ptr %2, ptr %9, align 8
  store ptr %3, ptr %10, align 8
  store i32 %4, ptr %11, align 4
  call void @llvm.lifetime.start.p0(i64 8, ptr %12) #13
  call void @llvm.lifetime.start.p0(i64 4, ptr %13) #13
  call void @llvm.lifetime.start.p0(i64 4, ptr %14) #13
  store i32 0, ptr %14, align 4
  call void @llvm.lifetime.start.p0(i64 1, ptr %15) #13
  %20 = load ptr, ptr %10, align 8
  %21 = icmp eq ptr %20, null
  br i1 %21, label %22, label %23

22:                                               ; preds = %5
  br label %28

23:                                               ; preds = %5
  %24 = load ptr, ptr %10, align 8
  %25 = getelementptr inbounds i8, ptr %24, i64 0
  %26 = load i8, ptr %25, align 1
  %27 = sext i8 %26 to i32
  br label %28

28:                                               ; preds = %23, %22
  %29 = phi i32 [ 44, %22 ], [ %27, %23 ]
  %30 = trunc i32 %29 to i8
  store i8 %30, ptr %15, align 1
  %31 = load i32, ptr %11, align 4
  %32 = icmp ne i32 %31, 0
  br i1 %32, label %36, label %33

33:                                               ; preds = %28
  %34 = call zeroext i16 @slurmdb_setup_cluster_dims()
  %35 = zext i16 %34 to i32
  store i32 %35, ptr %11, align 4
  br label %36

36:                                               ; preds = %33, %28
  %37 = load i64, ptr %8, align 8
  %38 = icmp eq i64 %37, 0
  br i1 %38, label %39, label %40

39:                                               ; preds = %36
  store i64 0, ptr %6, align 8
  store i32 1, ptr %16, align 4
  br label %207

40:                                               ; preds = %36
  %41 = load ptr, ptr %7, align 8
  %42 = getelementptr inbounds nuw %struct.hostrange_t, ptr %41, i32 0, i32 4
  %43 = load i8, ptr %42, align 4, !range !12, !noundef !13
  %44 = trunc i8 %43 to i1
  br i1 %44, label %45, label %63

45:                                               ; preds = %40
  %46 = load ptr, ptr %9, align 8
  %47 = load i64, ptr %8, align 8
  %48 = load ptr, ptr %7, align 8
  %49 = getelementptr inbounds nuw %struct.hostrange_t, ptr %48, i32 0, i32 0
  %50 = load ptr, ptr %49, align 8
  %51 = call i32 (ptr, i64, ptr, ...) @snprintf(ptr noundef %46, i64 noundef %47, ptr noundef @.str.11, ptr noundef %50) #13
  store i32 %51, ptr %13, align 4
  %52 = load i32, ptr %13, align 4
  %53 = icmp slt i32 %52, 0
  br i1 %53, label %59, label %54

54:                                               ; preds = %45
  %55 = load i32, ptr %13, align 4
  %56 = sext i32 %55 to i64
  %57 = load i64, ptr %8, align 8
  %58 = icmp uge i64 %56, %57
  br i1 %58, label %59, label %60

59:                                               ; preds = %54, %45
  br label %202

60:                                               ; preds = %54
  %61 = load i32, ptr %13, align 4
  %62 = sext i32 %61 to i64
  store i64 %62, ptr %6, align 8
  store i32 1, ptr %16, align 4
  br label %207

63:                                               ; preds = %40
  %64 = load ptr, ptr %7, align 8
  %65 = getelementptr inbounds nuw %struct.hostrange_t, ptr %64, i32 0, i32 1
  %66 = load i64, ptr %65, align 8
  store i64 %66, ptr %12, align 8
  br label %67

67:                                               ; preds = %192, %63
  %68 = load i64, ptr %12, align 8
  %69 = load ptr, ptr %7, align 8
  %70 = getelementptr inbounds nuw %struct.hostrange_t, ptr %69, i32 0, i32 2
  %71 = load i64, ptr %70, align 8
  %72 = icmp ule i64 %68, %71
  br i1 %72, label %73, label %195

73:                                               ; preds = %67
  %74 = load i64, ptr %12, align 8
  %75 = load ptr, ptr %7, align 8
  %76 = getelementptr inbounds nuw %struct.hostrange_t, ptr %75, i32 0, i32 1
  %77 = load i64, ptr %76, align 8
  %78 = icmp ugt i64 %74, %77
  br i1 %78, label %79, label %86

79:                                               ; preds = %73
  %80 = load i8, ptr %15, align 1
  %81 = load ptr, ptr %9, align 8
  %82 = load i32, ptr %14, align 4
  %83 = add nsw i32 %82, 1
  store i32 %83, ptr %14, align 4
  %84 = sext i32 %82 to i64
  %85 = getelementptr inbounds i8, ptr %81, i64 %84
  store i8 %80, ptr %85, align 1
  br label %86

86:                                               ; preds = %79, %73
  %87 = load i32, ptr %14, align 4
  %88 = sext i32 %87 to i64
  %89 = load i64, ptr %8, align 8
  %90 = icmp uge i64 %88, %89
  br i1 %90, label %91, label %92

91:                                               ; preds = %86
  br label %202

92:                                               ; preds = %86
  %93 = load i32, ptr %11, align 4
  %94 = icmp sgt i32 %93, 1
  br i1 %94, label %95, label %163

95:                                               ; preds = %92
  %96 = load ptr, ptr %7, align 8
  %97 = getelementptr inbounds nuw %struct.hostrange_t, ptr %96, i32 0, i32 3
  %98 = load i32, ptr %97, align 8
  %99 = load i32, ptr %11, align 4
  %100 = icmp eq i32 %98, %99
  br i1 %100, label %101, label %163

101:                                              ; preds = %95
  call void @llvm.lifetime.start.p0(i64 4, ptr %17) #13
  store i32 0, ptr %17, align 4
  %102 = load i32, ptr %11, align 4
  %103 = zext i32 %102 to i64
  %104 = call ptr @llvm.stacksave.p0()
  store ptr %104, ptr %18, align 8
  %105 = alloca i32, i64 %103, align 16
  store i64 %103, ptr %19, align 8
  %106 = load i64, ptr %12, align 8
  %107 = trunc i64 %106 to i32
  %108 = load i32, ptr %11, align 4
  call void @hostlist_parse_int_to_array(i32 noundef %107, ptr noundef %105, i32 noundef %108, i32 noundef 0)
  %109 = load ptr, ptr %9, align 8
  %110 = load i32, ptr %14, align 4
  %111 = sext i32 %110 to i64
  %112 = getelementptr inbounds i8, ptr %109, i64 %111
  %113 = load i64, ptr %8, align 8
  %114 = load i32, ptr %14, align 4
  %115 = sext i32 %114 to i64
  %116 = sub i64 %113, %115
  %117 = load ptr, ptr %7, align 8
  %118 = getelementptr inbounds nuw %struct.hostrange_t, ptr %117, i32 0, i32 0
  %119 = load ptr, ptr %118, align 8
  %120 = call i32 (ptr, i64, ptr, ...) @snprintf(ptr noundef %112, i64 noundef %116, ptr noundef @.str.11, ptr noundef %119) #13
  store i32 %120, ptr %13, align 4
  %121 = load i32, ptr %13, align 4
  %122 = icmp slt i32 %121, 0
  br i1 %122, label %137, label %123

123:                                              ; preds = %101
  %124 = load i32, ptr %13, align 4
  %125 = load i32, ptr %14, align 4
  %126 = add nsw i32 %125, %124
  store i32 %126, ptr %14, align 4
  %127 = sext i32 %126 to i64
  %128 = load i64, ptr %8, align 8
  %129 = icmp uge i64 %127, %128
  br i1 %129, label %137, label %130

130:                                              ; preds = %123
  %131 = load i32, ptr %14, align 4
  %132 = load i32, ptr %11, align 4
  %133 = add nsw i32 %131, %132
  %134 = sext i32 %133 to i64
  %135 = load i64, ptr %8, align 8
  %136 = icmp uge i64 %134, %135
  br i1 %136, label %137, label %138

137:                                              ; preds = %130, %123, %101
  store i32 2, ptr %16, align 4
  br label %159

138:                                              ; preds = %130
  br label %139

139:                                              ; preds = %143, %138
  %140 = load i32, ptr %17, align 4
  %141 = load i32, ptr %11, align 4
  %142 = icmp slt i32 %140, %141
  br i1 %142, label %143, label %158

143:                                              ; preds = %139
  %144 = load ptr, ptr @alpha_num, align 8
  %145 = load i32, ptr %17, align 4
  %146 = add nsw i32 %145, 1
  store i32 %146, ptr %17, align 4
  %147 = sext i32 %145 to i64
  %148 = getelementptr inbounds i32, ptr %105, i64 %147
  %149 = load i32, ptr %148, align 4
  %150 = sext i32 %149 to i64
  %151 = getelementptr inbounds i8, ptr %144, i64 %150
  %152 = load i8, ptr %151, align 1
  %153 = load ptr, ptr %9, align 8
  %154 = load i32, ptr %14, align 4
  %155 = add nsw i32 %154, 1
  store i32 %155, ptr %14, align 4
  %156 = sext i32 %154 to i64
  %157 = getelementptr inbounds i8, ptr %153, i64 %156
  store i8 %152, ptr %157, align 1
  br label %139, !llvm.loop !46

158:                                              ; preds = %139
  store i32 0, ptr %16, align 4
  br label %159

159:                                              ; preds = %137, %158
  %160 = load ptr, ptr %18, align 8
  call void @llvm.stackrestore.p0(ptr %160)
  call void @llvm.lifetime.end.p0(i64 4, ptr %17) #13
  %161 = load i32, ptr %16, align 4
  switch i32 %161, label %207 [
    i32 0, label %162
    i32 2, label %202
  ]

162:                                              ; preds = %159
  br label %191

163:                                              ; preds = %95, %92
  %164 = load ptr, ptr %9, align 8
  %165 = load i32, ptr %14, align 4
  %166 = sext i32 %165 to i64
  %167 = getelementptr inbounds i8, ptr %164, i64 %166
  %168 = load i64, ptr %8, align 8
  %169 = load i32, ptr %14, align 4
  %170 = sext i32 %169 to i64
  %171 = sub i64 %168, %170
  %172 = load ptr, ptr %7, align 8
  %173 = getelementptr inbounds nuw %struct.hostrange_t, ptr %172, i32 0, i32 0
  %174 = load ptr, ptr %173, align 8
  %175 = load ptr, ptr %7, align 8
  %176 = getelementptr inbounds nuw %struct.hostrange_t, ptr %175, i32 0, i32 3
  %177 = load i32, ptr %176, align 8
  %178 = load i64, ptr %12, align 8
  %179 = call i32 (ptr, i64, ptr, ...) @snprintf(ptr noundef %167, i64 noundef %171, ptr noundef @.str.20, ptr noundef %174, i32 noundef %177, i64 noundef %178) #13
  store i32 %179, ptr %13, align 4
  %180 = load i32, ptr %13, align 4
  %181 = icmp slt i32 %180, 0
  br i1 %181, label %189, label %182

182:                                              ; preds = %163
  %183 = load i32, ptr %13, align 4
  %184 = load i32, ptr %14, align 4
  %185 = add nsw i32 %184, %183
  store i32 %185, ptr %14, align 4
  %186 = sext i32 %185 to i64
  %187 = load i64, ptr %8, align 8
  %188 = icmp uge i64 %186, %187
  br i1 %188, label %189, label %190

189:                                              ; preds = %182, %163
  br label %202

190:                                              ; preds = %182
  br label %191

191:                                              ; preds = %190, %162
  br label %192

192:                                              ; preds = %191
  %193 = load i64, ptr %12, align 8
  %194 = add i64 %193, 1
  store i64 %194, ptr %12, align 8
  br label %67, !llvm.loop !47

195:                                              ; preds = %67
  %196 = load ptr, ptr %9, align 8
  %197 = load i32, ptr %14, align 4
  %198 = sext i32 %197 to i64
  %199 = getelementptr inbounds i8, ptr %196, i64 %198
  store i8 0, ptr %199, align 1
  %200 = load i32, ptr %14, align 4
  %201 = sext i32 %200 to i64
  store i64 %201, ptr %6, align 8
  store i32 1, ptr %16, align 4
  br label %207

202:                                              ; preds = %159, %189, %91, %59
  %203 = load ptr, ptr %9, align 8
  %204 = load i64, ptr %8, align 8
  %205 = sub i64 %204, 1
  %206 = getelementptr inbounds nuw i8, ptr %203, i64 %205
  store i8 0, ptr %206, align 1
  store i64 -1, ptr %6, align 8
  store i32 1, ptr %16, align 4
  br label %207

207:                                              ; preds = %202, %195, %159, %60, %39
  call void @llvm.lifetime.end.p0(i64 1, ptr %15) #13
  call void @llvm.lifetime.end.p0(i64 4, ptr %14) #13
  call void @llvm.lifetime.end.p0(i64 4, ptr %13) #13
  call void @llvm.lifetime.end.p0(i64 8, ptr %12) #13
  %208 = load i64, ptr %6, align 8
  ret i64 %208
}