; Function Attrs: nounwind uwtable
define internal fastcc range(i64 -1, 4294967296) i64 @hostrange_to_string(ptr noundef readonly captures(none) %0, i64 noundef %1, ptr noundef writeonly captures(none) %2, i32 noundef %3) unnamed_addr #0 {
  %.not = icmp eq i32 %3, 0
  br i1 %.not, label %5, label %8

5:                                                ; preds = %4
  %6 = tail call zeroext i16 @slurmdb_setup_cluster_dims() #22
  %.fr = freeze i16 %6
  %7 = zext i16 %.fr to i32
  br label %8

8:                                                ; preds = %5, %4
  %.064 = phi i32 [ %3, %4 ], [ %7, %5 ]
  %9 = icmp eq i64 %1, 0
  br i1 %9, label %99, label %10

10:                                               ; preds = %8
  %11 = getelementptr inbounds nuw i8, ptr %0, i64 28
  %12 = load i8, ptr %11, align 4, !range !14, !noundef !15
  %13 = trunc nuw i8 %12 to i1
  br i1 %13, label %14, label %19

14:                                               ; preds = %10
  %15 = load ptr, ptr %0, align 8
  %16 = tail call i32 (ptr, i64, ptr, ...) @snprintf(ptr noundef %2, i64 noundef %1, ptr noundef nonnull @.str.11, ptr noundef %15) #22
  %17 = icmp sgt i32 %16, -1
  %18 = zext nneg i32 %16 to i64
  %.not82 = icmp ugt i64 %1, %18
  %or.cond87 = select i1 %17, i1 %.not82, i1 false
  br i1 %or.cond87, label %99, label %.loopexit

19:                                               ; preds = %10
  %20 = getelementptr inbounds nuw i8, ptr %0, i64 8
  %21 = load i64, ptr %20, align 8
  %22 = getelementptr inbounds nuw i8, ptr %0, i64 16
  %23 = load i64, ptr %22, align 8
  %.not778 = icmp ugt i64 %21, %23
  br i1 %.not778, label %._crit_edge14, label %.lr.ph13

.lr.ph13:                                         ; preds = %19
  %24 = icmp sgt i32 %.064, 1
  %25 = getelementptr inbounds nuw i8, ptr %0, i64 24
  %26 = zext i32 %.064 to i64
  %27 = icmp sgt i32 %.064, 0
  br i1 %24, label %.lr.ph13.split.us, label %.lr.ph13.split

.lr.ph13.split.us:                                ; preds = %.lr.ph13, %65
  %.06710.us = phi i64 [ %66, %65 ], [ %21, %.lr.ph13 ]
  %.0689.us = phi i32 [ %.5.us, %65 ], [ 0, %.lr.ph13 ]
  %28 = load i64, ptr %20, align 8
  %29 = icmp ugt i64 %.06710.us, %28
  br i1 %29, label %30, label %34

30:                                               ; preds = %.lr.ph13.split.us
  %31 = add nuw nsw i32 %.0689.us, 1
  %32 = zext nneg i32 %.0689.us to i64
  %33 = getelementptr inbounds nuw i8, ptr %2, i64 %32
  store i8 44, ptr %33, align 1
  br label %34

34:                                               ; preds = %30, %.lr.ph13.split.us
  %.1.us = phi i32 [ %31, %30 ], [ %.0689.us, %.lr.ph13.split.us ]
  %35 = zext nneg i32 %.1.us to i64
  %.not78.us = icmp ugt i64 %1, %35
  br i1 %.not78.us, label %36, label %.loopexit

36:                                               ; preds = %34
  %37 = load i32, ptr %25, align 8
  %38 = icmp eq i32 %37, %.064
  br i1 %38, label %.lr.ph.preheader.i.us, label %39

39:                                               ; preds = %36
  %40 = getelementptr inbounds nuw i8, ptr %2, i64 %35
  %41 = sub i64 %1, %35
  %42 = load ptr, ptr %0, align 8
  %43 = tail call i32 (ptr, i64, ptr, ...) @snprintf(ptr noundef %40, i64 noundef %41, ptr noundef nonnull @.str.20, ptr noundef %42, i32 noundef %37, i64 noundef %.06710.us) #22
  %44 = icmp sgt i32 %43, -1
  %45 = add nuw nsw i32 %43, %.1.us
  %46 = zext nneg i32 %45 to i64
  %.not79.us = icmp ugt i64 %1, %46
  %or.cond86.us = select i1 %44, i1 %.not79.us, i1 false
  br i1 %or.cond86.us, label %65, label %.loopexit

.lr.ph.preheader.i.us:                            ; preds = %36
  %47 = tail call ptr @llvm.stacksave.p0()
  %48 = alloca i32, i64 %26, align 16
  %49 = trunc i64 %.06710.us to i32
  br label %.lr.ph.i.us

.lr.ph.i.us:                                      ; preds = %.lr.ph.i.us, %.lr.ph.preheader.i.us
  %indvars.iv.i.us = phi i64 [ %26, %.lr.ph.preheader.i.us ], [ %indvars.iv.next.i.us, %.lr.ph.i.us ]
  %.012.i.us = phi i32 [ %49, %.lr.ph.preheader.i.us ], [ %52, %.lr.ph.i.us ]
  %indvars.iv.next.i.us = add nsw i64 %indvars.iv.i.us, -1
  %50 = srem i32 %.012.i.us, 36
  %51 = getelementptr inbounds nuw i32, ptr %48, i64 %indvars.iv.next.i.us
  store i32 %50, ptr %51, align 4
  %52 = sdiv i32 %.012.i.us, 36
  %53 = icmp samesign ugt i64 %indvars.iv.i.us, 1
  br i1 %53, label %.lr.ph.i.us, label %hostlist_parse_int_to_array.exit.us, !llvm.loop !52

hostlist_parse_int_to_array.exit.us:              ; preds = %.lr.ph.i.us
  %54 = getelementptr inbounds nuw i8, ptr %2, i64 %35
  %55 = sub i64 %1, %35
  %56 = load ptr, ptr %0, align 8
  %57 = tail call i32 (ptr, i64, ptr, ...) @snprintf(ptr noundef %54, i64 noundef %55, ptr noundef nonnull @.str.11, ptr noundef %56) #22
  %58 = icmp slt i32 %57, 0
  br i1 %58, label %.thread, label %59

59:                                               ; preds = %hostlist_parse_int_to_array.exit.us
  %60 = add nuw nsw i32 %57, %.1.us
  %61 = zext nneg i32 %60 to i64
  %.not80.us = icmp ugt i64 %1, %61
  %62 = add nuw nsw i32 %60, %.064
  %63 = zext nneg i32 %62 to i64
  %.not81.us = icmp ugt i64 %1, %63
  %or.cond.us = select i1 %.not80.us, i1 %.not81.us, i1 false
  br i1 %or.cond.us, label %.preheader.us, label %.thread

._crit_edge.us.loopexit:                          ; preds = %.lr.ph.us
  %64 = trunc nuw i64 %indvars.iv.next22 to i32
  br label %._crit_edge.us

._crit_edge.us:                                   ; preds = %._crit_edge.us.loopexit, %.preheader.us
  %.4.lcssa.us = phi i32 [ %60, %.preheader.us ], [ %64, %._crit_edge.us.loopexit ]
  call void @llvm.stackrestore.p0(ptr %47)
  br label %65

65:                                               ; preds = %._crit_edge.us, %39
  %.5.us = phi i32 [ %.4.lcssa.us, %._crit_edge.us ], [ %45, %39 ]
  %66 = add i64 %.06710.us, 1
  %67 = load i64, ptr %22, align 8
  %.not77.us = icmp ugt i64 %66, %67
  br i1 %.not77.us, label %._crit_edge14, label %.lr.ph13.split.us, !llvm.loop !58

.lr.ph.us:                                        ; preds = %.preheader.us, %.lr.ph.us
  %indvars.iv21 = phi i64 [ %indvars.iv.next22, %.lr.ph.us ], [ %61, %.preheader.us ]
  %indvars.iv = phi i64 [ %indvars.iv.next, %.lr.ph.us ], [ 0, %.preheader.us ]
  %68 = load ptr, ptr @alpha_num, align 8
  %indvars.iv.next = add nuw nsw i64 %indvars.iv, 1
  %69 = getelementptr inbounds nuw i32, ptr %48, i64 %indvars.iv
  %70 = load i32, ptr %69, align 4
  %71 = sext i32 %70 to i64
  %72 = getelementptr inbounds i8, ptr %68, i64 %71
  %73 = load i8, ptr %72, align 1
  %indvars.iv.next22 = add nuw nsw i64 %indvars.iv21, 1
  %74 = getelementptr inbounds nuw i8, ptr %2, i64 %indvars.iv21
  store i8 %73, ptr %74, align 1
  %exitcond.not = icmp eq i64 %indvars.iv.next, %26
  br i1 %exitcond.not, label %._crit_edge.us.loopexit, label %.lr.ph.us, !llvm.loop !59

.preheader.us:                                    ; preds = %59
  br i1 %27, label %.lr.ph.us, label %._crit_edge.us

.lr.ph13.split:                                   ; preds = %.lr.ph13, %92
  %.06710 = phi i64 [ %93, %92 ], [ %21, %.lr.ph13 ]
  %.0689 = phi i32 [ %90, %92 ], [ 0, %.lr.ph13 ]
  %75 = load i64, ptr %20, align 8
  %76 = icmp ugt i64 %.06710, %75
  br i1 %76, label %77, label %81

77:                                               ; preds = %.lr.ph13.split
  %78 = add nuw nsw i32 %.0689, 1
  %79 = zext nneg i32 %.0689 to i64
  %80 = getelementptr inbounds nuw i8, ptr %2, i64 %79
  store i8 44, ptr %80, align 1
  br label %81

81:                                               ; preds = %77, %.lr.ph13.split
  %.1 = phi i32 [ %78, %77 ], [ %.0689, %.lr.ph13.split ]
  %82 = zext nneg i32 %.1 to i64
  %.not78 = icmp ugt i64 %1, %82
  br i1 %.not78, label %83, label %.loopexit

83:                                               ; preds = %81
  %84 = getelementptr inbounds nuw i8, ptr %2, i64 %82
  %85 = sub nuw i64 %1, %82
  %86 = load ptr, ptr %0, align 8
  %87 = load i32, ptr %25, align 8
  %88 = tail call i32 (ptr, i64, ptr, ...) @snprintf(ptr noundef %84, i64 noundef %85, ptr noundef nonnull @.str.20, ptr noundef %86, i32 noundef %87, i64 noundef %.06710) #22
  %89 = icmp sgt i32 %88, -1
  %90 = add nuw nsw i32 %88, %.1
  %91 = zext nneg i32 %90 to i64
  %.not79 = icmp ugt i64 %1, %91
  %or.cond86 = select i1 %89, i1 %.not79, i1 false
  br i1 %or.cond86, label %92, label %.loopexit

.thread:                                          ; preds = %hostlist_parse_int_to_array.exit.us, %59
  call void @llvm.stackrestore.p0(ptr %47)
  br label %.loopexit

92:                                               ; preds = %83
  %93 = add i64 %.06710, 1
  %94 = load i64, ptr %22, align 8
  %.not77 = icmp ugt i64 %93, %94
  br i1 %.not77, label %._crit_edge14, label %.lr.ph13.split, !llvm.loop !58

._crit_edge14:                                    ; preds = %92, %65, %19
  %.068.lcssa = phi i32 [ 0, %19 ], [ %.5.us, %65 ], [ %90, %92 ]
  %95 = zext nneg i32 %.068.lcssa to i64
  %96 = getelementptr inbounds nuw i8, ptr %2, i64 %95
  store i8 0, ptr %96, align 1
  br label %99

.loopexit:                                        ; preds = %81, %83, %39, %34, %.thread, %14
  %97 = getelementptr i8, ptr %2, i64 %1
  %98 = getelementptr i8, ptr %97, i64 -1
  store i8 0, ptr %98, align 1
  br label %99

99:                                               ; preds = %14, %8, %.loopexit, %._crit_edge14
  %.0 = phi i64 [ -1, %.loopexit ], [ %95, %._crit_edge14 ], [ 0, %8 ], [ %18, %14 ]
  ret i64 %.0
}